target datalayout = "e-m:e-p270:32:32-p271:32:32-p272:64:64-i64:64-i128:128-f80:128-n8:16:32:64-S128"
target triple = "x86_64-pc-linux-gnu"

%struct.pmi2_job_info = type { %struct.slurm_step_id_msg, i32, i32, i32, i32, i32, ptr, i32, i32, ptr, ptr, ptr, ptr, ptr, ptr, ptr, ptr }
%struct.slurm_step_id_msg = type { i64, i32, i32, i32 }
%struct.pmi2_tree_info = type { ptr, ptr, i32, i32, i32, i32, i16, ptr, ptr }
%struct.buf_t = type { i32, ptr, i32, i32, i8, i8 }

@tasks_to_wait = dso_local global i32 0, align 4
@children_to_wait = dso_local global i32 0, align 4
@kvs_seq = dso_local global i32 1, align 4
@temp_kvs_buf = internal global ptr null, align 8
@temp_kvs_cnt = internal global i32 0, align 4
@temp_kvs_size = internal global i32 0, align 4
@.str = private unnamed_addr constant [6 x i8] c"kvs.c\00", align 1
@__func__.temp_kvs_init = private unnamed_addr constant [14 x i8] c"temp_kvs_init\00", align 1
@job_info = external global %struct.pmi2_job_info, align 8
@tree_info = external global %struct.pmi2_tree_info, align 8

; Function Attrs: nounwind uwtable
define dso_local i32 @temp_kvs_init() #0 {
  %1 = alloca i16, align 2
  %2 = alloca i32, align 4
  %3 = alloca i32, align 4
  %4 = alloca i32, align 4
  %5 = alloca ptr, align 8
  %6 = alloca i32, align 4
  call void @llvm.lifetime.start.p0(i64 2, ptr %1) #7
  call void @llvm.lifetime.start.p0(i64 4, ptr %2) #7
  call void @llvm.lifetime.start.p0(i64 4, ptr %3) #7
  call void @llvm.lifetime.start.p0(i64 4, ptr %4) #7
  call void @llvm.lifetime.start.p0(i64 8, ptr %5) #7
  store ptr null, ptr %5, align 8
  call void @slurm_xfree(ptr noundef @temp_kvs_buf)
  store i32 0, ptr @temp_kvs_cnt, align 4
  store i32 2048, ptr @temp_kvs_size, align 4
  %7 = load i32, ptr @temp_kvs_size, align 4
  %8 = sext i32 %7 to i64
  %9 = call ptr @slurm_xcalloc(i64 noundef 1, i64 noundef %8, i1 noundef zeroext true, i1 noundef zeroext false, ptr noundef @.str, i32 noundef 105, ptr noundef @__func__.temp_kvs_init)
  store ptr %9, ptr @temp_kvs_buf, align 8
  %10 = call zeroext i1 @in_stepd()
  br i1 %10, label %11, label %12

11:                                               ; preds = %0
  store i16 0, ptr %1, align 2
  br label %13

12:                                               ; preds = %0
  store i16 1, ptr %1, align 2
  br label %13

13:                                               ; preds = %12, %11
  %14 = call ptr @slurm_init_buf(i32 noundef 1024)
  store ptr %14, ptr %5, align 8
  %15 = load i16, ptr %1, align 2
  %16 = load ptr, ptr %5, align 8
  call void @slurm_pack16(i16 noundef zeroext %15, ptr noundef %16)
  %17 = call zeroext i1 @in_stepd()
  br i1 %17, label %18, label %42

18:                                               ; preds = %13
  %19 = load i32, ptr getelementptr inbounds nuw (%struct.pmi2_job_info, ptr @job_info, i32 0, i32 3), align 8
  store i32 %19, ptr %2, align 4
  %20 = load i32, ptr getelementptr inbounds nuw (%struct.pmi2_tree_info, ptr @tree_info, i32 0, i32 3), align 4
  %21 = add nsw i32 %20, 1
  store i32 %21, ptr %3, align 4
  %22 = load i32, ptr %2, align 4
  %23 = load ptr, ptr %5, align 8
  call void @slurm_pack32(i32 noundef %22, ptr noundef %23)
  br label %24

24:                                               ; preds = %18
  call void @llvm.lifetime.start.p0(i64 4, ptr %6) #7
  store i32 0, ptr %6, align 4
  %25 = load ptr, ptr @tree_info, align 8
  %26 = icmp ne ptr %25, null
  br i1 %26, label %27, label %32

27:                                               ; preds = %24
  %28 = load ptr, ptr @tree_info, align 8
  %29 = call i64 @strlen(ptr noundef %28) #8
  %30 = trunc i64 %29 to i32
  %31 = add i32 %30, 1
  store i32 %31, ptr %6, align 4
  br label %32

32:                                               ; preds = %27, %24
  %33 = load ptr, ptr @tree_info, align 8
  %34 = load i32, ptr %6, align 4
  %35 = load ptr, ptr %5, align 8
  call void @slurm_packmem(ptr noundef %33, i32 noundef %34, ptr noundef %35)
  call void @llvm.lifetime.end.p0(i64 4, ptr %6) #7
  br label %36

36:                                               ; preds = %32
  br label %37

37:                                               ; preds = %36
  %38 = load i32, ptr %3, align 4
  %39 = load ptr, ptr %5, align 8
  call void @slurm_pack32(i32 noundef %38, ptr noundef %39)
  %40 = load i32, ptr @kvs_seq, align 4
  %41 = load ptr, ptr %5, align 8
  call void @slurm_pack32(i32 noundef %40, ptr noundef %41)
  br label %45

42:                                               ; preds = %13
  %43 = load i32, ptr @kvs_seq, align 4
  %44 = load ptr, ptr %5, align 8
  call void @slurm_pack32(i32 noundef %43, ptr noundef %44)
  br label %45

45:                                               ; preds = %42, %37
  %46 = load ptr, ptr %5, align 8
  %47 = getelementptr inbounds nuw %struct.buf_t, ptr %46, i32 0, i32 3
  %48 = load i32, ptr %47, align 4
  store i32 %48, ptr %4, align 4
  %49 = load i32, ptr @temp_kvs_cnt, align 4
  %50 = load i32, ptr %4, align 4
  %51 = add i32 %49, %50
  %52 = load i32, ptr @temp_kvs_size, align 4
  %53 = icmp ugt i32 %51, %52
  br i1 %53, label %54, label %60

54:                                               ; preds = %45
  %55 = load i32, ptr @temp_kvs_size, align 4
  %56 = add nsw i32 %55, 2048
  store i32 %56, ptr @temp_kvs_size, align 4
  %57 = load i32, ptr @temp_kvs_size, align 4
  %58 = sext i32 %57 to i64
  %59 = call ptr @slurm_xrecalloc(ptr noundef @temp_kvs_buf, i64 noundef 1, i64 noundef %58, i1 noundef zeroext true, i1 noundef zeroext false, ptr noundef @.str, i32 noundef 131, ptr noundef @__func__.temp_kvs_init)
  br label %60

60:                                               ; preds = %54, %45
  %61 = load ptr, ptr @temp_kvs_buf, align 8
  %62 = load i32, ptr @temp_kvs_cnt, align 4
  %63 = sext i32 %62 to i64
  %64 = getelementptr inbounds i8, ptr %61, i64 %63
  %65 = load ptr, ptr %5, align 8
  %66 = getelementptr inbounds nuw %struct.buf_t, ptr %65, i32 0, i32 1
  %67 = load ptr, ptr %66, align 8
  %68 = load i32, ptr %4, align 4
  %69 = zext i32 %68 to i64
  call void @llvm.memcpy.p0.p0.i64(ptr align 1 %64, ptr align 1 %67, i64 %69, i1 false)
  %70 = load i32, ptr %4, align 4
  %71 = load i32, ptr @temp_kvs_cnt, align 4
  %72 = add i32 %71, %70
  store i32 %72, ptr @temp_kvs_cnt, align 4
  br label %73

73:                                               ; preds = %60
  %74 = load ptr, ptr %5, align 8
  %75 = icmp ne ptr %74, null
  br i1 %75, label %76, label %78

76:                                               ; preds = %73
  %77 = load ptr, ptr %5, align 8
  call void @slurm_free_buf(ptr noundef %77)
  br label %78

78:                                               ; preds = %76, %73
  store ptr null, ptr %5, align 8
  br label %79

79:                                               ; preds = %78
  br label %80

80:                                               ; preds = %79
  store i32 0, ptr @tasks_to_wait, align 4
  store i32 0, ptr @children_to_wait, align 4
  call void @llvm.lifetime.end.p0(i64 8, ptr %5) #7
  call void @llvm.lifetime.end.p0(i64 4, ptr %4) #7
  call void @llvm.lifetime.end.p0(i64 4, ptr %3) #7
  call void @llvm.lifetime.end.p0(i64 4, ptr %2) #7
  call void @llvm.lifetime.end.p0(i64 2, ptr %1) #7
  ret i32 0
}