; Function Attrs: nounwind uwtable
define dso_local noundef i32 @temp_kvs_init() local_unnamed_addr #0 {
  tail call void @slurm_xfree(ptr noundef nonnull @temp_kvs_buf) #6
  store i32 0, ptr @temp_kvs_cnt, align 4
  store i32 2048, ptr @temp_kvs_size, align 4
  %1 = tail call ptr @slurm_xcalloc(i64 noundef 1, i64 noundef 2048, i1 noundef zeroext true, i1 noundef zeroext false, ptr noundef nonnull @.str, i32 noundef 105, ptr noundef nonnull @__func__.temp_kvs_init) #6
  store ptr %1, ptr @temp_kvs_buf, align 8
  %2 = tail call zeroext i1 @in_stepd() #6
  %not. = xor i1 %2, true
  %. = zext i1 %not. to i16
  %3 = tail call ptr @slurm_init_buf(i32 noundef 1024) #6
  tail call void @slurm_pack16(i16 noundef zeroext %., ptr noundef %3) #6
  %4 = tail call zeroext i1 @in_stepd() #6
  br i1 %4, label %5, label %15

5:                                                ; preds = %0
  %6 = load i32, ptr getelementptr inbounds nuw (i8, ptr @job_info, i64 32), align 8
  %7 = load i32, ptr getelementptr inbounds nuw (i8, ptr @tree_info, i64 20), align 4
  %8 = add nsw i32 %7, 1
  tail call void @slurm_pack32(i32 noundef %6, ptr noundef %3) #6
  %9 = load ptr, ptr @tree_info, align 8
  %.not = icmp eq ptr %9, null
  br i1 %.not, label %14, label %10

10:                                               ; preds = %5
  %11 = tail call i64 @strlen(ptr noundef nonnull dereferenceable(1) %9) #7
  %12 = trunc i64 %11 to i32
  %13 = add i32 %12, 1
  br label %14

14:                                               ; preds = %10, %5
  %.0 = phi i32 [ %13, %10 ], [ 0, %5 ]
  tail call void @slurm_packmem(ptr noundef %9, i32 noundef %.0, ptr noundef %3) #6
  tail call void @slurm_pack32(i32 noundef %8, ptr noundef %3) #6
  br label %15

15:                                               ; preds = %0, %14
  %16 = load i32, ptr @kvs_seq, align 4
  tail call void @slurm_pack32(i32 noundef %16, ptr noundef %3) #6
  %17 = getelementptr inbounds nuw i8, ptr %3, i64 20
  %18 = load i32, ptr %17, align 4
  %19 = load i32, ptr @temp_kvs_cnt, align 4
  %20 = add i32 %19, %18
  %21 = load i32, ptr @temp_kvs_size, align 4
  %22 = icmp ugt i32 %20, %21
  br i1 %22, label %23, label %27

23:                                               ; preds = %15
  %24 = add nsw i32 %21, 2048
  store i32 %24, ptr @temp_kvs_size, align 4
  %25 = sext i32 %24 to i64
  %26 = tail call ptr @slurm_xrecalloc(ptr noundef nonnull @temp_kvs_buf, i64 noundef 1, i64 noundef %25, i1 noundef zeroext true, i1 noundef zeroext false, ptr noundef nonnull @.str, i32 noundef 131, ptr noundef nonnull @__func__.temp_kvs_init) #6
  %.pre = load i32, ptr @temp_kvs_cnt, align 4
  %.pre21 = add i32 %.pre, %18
  br label %27

27:                                               ; preds = %23, %15
  %.pre-phi = phi i32 [ %.pre21, %23 ], [ %20, %15 ]
  %28 = phi i32 [ %.pre, %23 ], [ %19, %15 ]
  %29 = load ptr, ptr @temp_kvs_buf, align 8
  %30 = sext i32 %28 to i64
  %31 = getelementptr inbounds i8, ptr %29, i64 %30
  %32 = getelementptr inbounds nuw i8, ptr %3, i64 8
  %33 = load ptr, ptr %32, align 8
  %34 = zext i32 %18 to i64
  tail call void @llvm.memcpy.p0.p0.i64(ptr align 1 %31, ptr align 1 %33, i64 %34, i1 false)
  store i32 %.pre-phi, ptr @temp_kvs_cnt, align 4
  tail call void @slurm_free_buf(ptr noundef nonnull %3) #6
  store i32 0, ptr @tasks_to_wait, align 4
  store i32 0, ptr @children_to_wait, align 4
  ret i32 0
}